target datalayout = "e-m:e-p270:32:32-p271:32:32-p272:64:64-i64:64-i128:128-f80:128-n8:16:32:64-S128"
target triple = "x86_64-pc-linux-gnu"

%"class.std::__shared_count" = type { ptr }
%"class.duckdb::ColumnReader" = type { ptr, ptr, ptr, i64, i8, ptr, ptr, i64, i64, i64, %"class.duckdb::shared_ptr", %"class.duckdb::ResizeableBuffer", i32, %"class.duckdb::unique_ptr.11", %"class.duckdb::unique_ptr.11", %"class.duckdb::DictionaryDecoder", %"class.duckdb::DeltaBinaryPackedDecoder", %"class.duckdb::RLEDecoder", %"class.duckdb::DeltaLengthByteArrayDecoder", %"class.duckdb::DeltaByteArrayDecoder", %"class.duckdb::ByteStreamSplitDecoder", [2 x %"class.duckdb::ResizeableBuffer"] }
%"class.duckdb::shared_ptr" = type { %"class.std::shared_ptr" }
%"class.std::shared_ptr" = type { %"class.std::__shared_ptr" }
%"class.std::__shared_ptr" = type { ptr, %"class.std::__shared_count" }
%"class.duckdb::ResizeableBuffer" = type { %"class.duckdb::ByteBuffer", %"class.duckdb::AllocatedData", i64 }
%"class.duckdb::ByteBuffer" = type { ptr, i64 }
%"class.duckdb::AllocatedData" = type { %"class.duckdb::optional_ptr", ptr, i64 }
%"class.duckdb::optional_ptr" = type { ptr }
%"class.duckdb::unique_ptr.11" = type { %"class.std::unique_ptr.12" }
%"class.std::unique_ptr.12" = type { %"struct.std::__uniq_ptr_data.13" }
%"struct.std::__uniq_ptr_data.13" = type { %"class.std::__uniq_ptr_impl.14" }
%"class.std::__uniq_ptr_impl.14" = type { %"class.std::tuple.15" }
%"class.std::tuple.15" = type { %"struct.std::_Tuple_impl.16" }
%"struct.std::_Tuple_impl.16" = type { %"struct.std::_Head_base.19" }
%"struct.std::_Head_base.19" = type { ptr }
%"class.duckdb::DictionaryDecoder" = type { ptr, ptr, %"class.duckdb::unique_ptr.11", %"struct.duckdb::SelectionVector", %"struct.duckdb::SelectionVector", i64, %"class.duckdb::unique_ptr.24", %"class.duckdb::unique_ptr.33", i64, i8, %"class.std::__cxx11::basic_string" }
%"struct.duckdb::SelectionVector" = type { ptr, %"class.duckdb::shared_ptr.20" }
%"class.duckdb::shared_ptr.20" = type { %"class.std::shared_ptr.21" }
%"class.std::shared_ptr.21" = type { %"class.std::__shared_ptr.22" }
%"class.std::__shared_ptr.22" = type { ptr, %"class.std::__shared_count" }
%"class.duckdb::unique_ptr.24" = type { %"class.std::unique_ptr.25" }
%"class.std::unique_ptr.25" = type { %"struct.std::__uniq_ptr_data.26" }
%"struct.std::__uniq_ptr_data.26" = type { %"class.std::__uniq_ptr_impl.27" }
%"class.std::__uniq_ptr_impl.27" = type { %"class.std::tuple.28" }
%"class.std::tuple.28" = type { %"struct.std::_Tuple_impl.29" }
%"struct.std::_Tuple_impl.29" = type { %"struct.std::_Head_base.32" }
%"struct.std::_Head_base.32" = type { ptr }
%"class.duckdb::unique_ptr.33" = type { %"class.std::unique_ptr.34" }
%"class.std::unique_ptr.34" = type { %"struct.std::__uniq_ptr_data.35" }
%"struct.std::__uniq_ptr_data.35" = type { %"class.std::__uniq_ptr_impl.36" }
%"class.std::__uniq_ptr_impl.36" = type { %"class.std::tuple.37" }
%"class.std::tuple.37" = type { %"struct.std::_Tuple_impl.38" }
%"struct.std::_Tuple_impl.38" = type { %"struct.std::_Head_base.41" }
%"struct.std::_Head_base.41" = type { ptr }
%"class.std::__cxx11::basic_string" = type { %"struct.std::__cxx11::basic_string<char>::_Alloc_hider", i64, %union.anon }
%"struct.std::__cxx11::basic_string<char>::_Alloc_hider" = type { ptr }
%union.anon = type { i64, [8 x i8] }
%"class.duckdb::DeltaBinaryPackedDecoder" = type { ptr, ptr, %"class.duckdb::unique_ptr.42" }
%"class.duckdb::unique_ptr.42" = type { %"class.std::unique_ptr.43" }
%"class.std::unique_ptr.43" = type { %"struct.std::__uniq_ptr_data.44" }
%"struct.std::__uniq_ptr_data.44" = type { %"class.std::__uniq_ptr_impl.45" }
%"class.std::__uniq_ptr_impl.45" = type { %"class.std::tuple.46" }
%"class.std::tuple.46" = type { %"struct.std::_Tuple_impl.47" }
%"struct.std::_Tuple_impl.47" = type { %"struct.std::_Head_base.50" }
%"struct.std::_Head_base.50" = type { ptr }
%"class.duckdb::RLEDecoder" = type { ptr, ptr, %"class.duckdb::unique_ptr.11" }
%"class.duckdb::DeltaLengthByteArrayDecoder" = type { ptr, ptr, i64, i64 }
%"class.duckdb::DeltaByteArrayDecoder" = type { ptr, %"class.duckdb::unique_ptr.24", i64, i64 }
%"class.duckdb::ByteStreamSplitDecoder" = type { ptr, ptr, %"class.duckdb::unique_ptr.51" }
%"class.duckdb::unique_ptr.51" = type { %"class.std::unique_ptr.52" }
%"class.std::unique_ptr.52" = type { %"struct.std::__uniq_ptr_data.53" }
%"struct.std::__uniq_ptr_data.53" = type { %"class.std::__uniq_ptr_impl.54" }
%"class.std::__uniq_ptr_impl.54" = type { %"class.std::tuple.55" }
%"class.std::tuple.55" = type { %"struct.std::_Tuple_impl.56" }
%"struct.std::_Tuple_impl.56" = type { %"struct.std::_Head_base.59" }
%"struct.std::_Head_base.59" = type { ptr }
%"class.duckdb::RowNumberColumnReader" = type { %"class.duckdb::ColumnReader", i64 }
%"class.duckdb_parquet::FileMetaData" = type <{ %"class.duckdb_apache::thrift::TBase", i32, [4 x i8], %"class.duckdb::vector.304", i64, %"class.duckdb::vector.310", %"class.duckdb::vector.316", %"class.std::__cxx11::basic_string", %"class.duckdb::vector.322", %"class.duckdb_parquet::EncryptionAlgorithm", %"class.std::__cxx11::basic_string", %"struct.duckdb_parquet::_FileMetaData__isset", [7 x i8] }>
%"class.duckdb_apache::thrift::TBase" = type { ptr }
%"class.duckdb::vector.304" = type { %"class.std::vector.305" }
%"class.std::vector.305" = type { %"struct.std::_Vector_base.306" }
%"struct.std::_Vector_base.306" = type { %"struct.std::_Vector_base<duckdb_parquet::SchemaElement, std::allocator<duckdb_parquet::SchemaElement>>::_Vector_impl" }
%"struct.std::_Vector_base<duckdb_parquet::SchemaElement, std::allocator<duckdb_parquet::SchemaElement>>::_Vector_impl" = type { %"struct.std::_Vector_base<duckdb_parquet::SchemaElement, std::allocator<duckdb_parquet::SchemaElement>>::_Vector_impl_data" }
%"struct.std::_Vector_base<duckdb_parquet::SchemaElement, std::allocator<duckdb_parquet::SchemaElement>>::_Vector_impl_data" = type { ptr, ptr, ptr }
%"class.duckdb::vector.310" = type { %"class.std::vector.311" }
%"class.std::vector.311" = type { %"struct.std::_Vector_base.312" }
%"struct.std::_Vector_base.312" = type { %"struct.std::_Vector_base<duckdb_parquet::RowGroup, std::allocator<duckdb_parquet::RowGroup>>::_Vector_impl" }
%"struct.std::_Vector_base<duckdb_parquet::RowGroup, std::allocator<duckdb_parquet::RowGroup>>::_Vector_impl" = type { %"struct.std::_Vector_base<duckdb_parquet::RowGroup, std::allocator<duckdb_parquet::RowGroup>>::_Vector_impl_data" }
%"struct.std::_Vector_base<duckdb_parquet::RowGroup, std::allocator<duckdb_parquet::RowGroup>>::_Vector_impl_data" = type { ptr, ptr, ptr }
%"class.duckdb::vector.316" = type { %"class.std::vector.317" }
%"class.std::vector.317" = type { %"struct.std::_Vector_base.318" }
%"struct.std::_Vector_base.318" = type { %"struct.std::_Vector_base<duckdb_parquet::KeyValue, std::allocator<duckdb_parquet::KeyValue>>::_Vector_impl" }
%"struct.std::_Vector_base<duckdb_parquet::KeyValue, std::allocator<duckdb_parquet::KeyValue>>::_Vector_impl" = type { %"struct.std::_Vector_base<duckdb_parquet::KeyValue, std::allocator<duckdb_parquet::KeyValue>>::_Vector_impl_data" }
%"struct.std::_Vector_base<duckdb_parquet::KeyValue, std::allocator<duckdb_parquet::KeyValue>>::_Vector_impl_data" = type { ptr, ptr, ptr }
%"class.duckdb::vector.322" = type { %"class.std::vector.323" }
%"class.std::vector.323" = type { %"struct.std::_Vector_base.324" }
%"struct.std::_Vector_base.324" = type { %"struct.std::_Vector_base<duckdb_parquet::ColumnOrder, std::allocator<duckdb_parquet::ColumnOrder>>::_Vector_impl" }
%"struct.std::_Vector_base<duckdb_parquet::ColumnOrder, std::allocator<duckdb_parquet::ColumnOrder>>::_Vector_impl" = type { %"struct.std::_Vector_base<duckdb_parquet::ColumnOrder, std::allocator<duckdb_parquet::ColumnOrder>>::_Vector_impl_data" }
%"struct.std::_Vector_base<duckdb_parquet::ColumnOrder, std::allocator<duckdb_parquet::ColumnOrder>>::_Vector_impl_data" = type { ptr, ptr, ptr }
%"class.duckdb_parquet::EncryptionAlgorithm" = type <{ %"class.duckdb_apache::thrift::TBase", %"class.duckdb_parquet::AesGcmV1", %"class.duckdb_parquet::AesGcmCtrV1", %"struct.duckdb_parquet::_EncryptionAlgorithm__isset", [7 x i8] }>
%"class.duckdb_parquet::AesGcmV1" = type <{ %"class.duckdb_apache::thrift::TBase", %"class.std::__cxx11::basic_string", %"class.std::__cxx11::basic_string", i8, %"struct.duckdb_parquet::_AesGcmV1__isset", [6 x i8] }>
%"struct.duckdb_parquet::_AesGcmV1__isset" = type { i8 }
%"class.duckdb_parquet::AesGcmCtrV1" = type <{ %"class.duckdb_apache::thrift::TBase", %"class.std::__cxx11::basic_string", %"class.std::__cxx11::basic_string", i8, %"struct.duckdb_parquet::_AesGcmCtrV1__isset", [6 x i8] }>
%"struct.duckdb_parquet::_AesGcmCtrV1__isset" = type { i8 }
%"struct.duckdb_parquet::_EncryptionAlgorithm__isset" = type { i8 }
%"struct.duckdb_parquet::_FileMetaData__isset" = type { i8 }
%"class.duckdb_parquet::RowGroup" = type <{ %"class.duckdb_apache::thrift::TBase", %"class.duckdb::vector.193", i64, i64, %"class.duckdb::vector.328", i64, i64, i16, %"struct.duckdb_parquet::_RowGroup__isset", [5 x i8] }>
%"class.duckdb::vector.193" = type { %"class.std::vector.194" }
%"class.std::vector.194" = type { %"struct.std::_Vector_base.195" }
%"struct.std::_Vector_base.195" = type { %"struct.std::_Vector_base<duckdb_parquet::ColumnChunk, std::allocator<duckdb_parquet::ColumnChunk>>::_Vector_impl" }
%"struct.std::_Vector_base<duckdb_parquet::ColumnChunk, std::allocator<duckdb_parquet::ColumnChunk>>::_Vector_impl" = type { %"struct.std::_Vector_base<duckdb_parquet::ColumnChunk, std::allocator<duckdb_parquet::ColumnChunk>>::_Vector_impl_data" }
%"struct.std::_Vector_base<duckdb_parquet::ColumnChunk, std::allocator<duckdb_parquet::ColumnChunk>>::_Vector_impl_data" = type { ptr, ptr, ptr }
%"class.duckdb::vector.328" = type { %"class.std::vector.329" }
%"class.std::vector.329" = type { %"struct.std::_Vector_base.330" }
%"struct.std::_Vector_base.330" = type { %"struct.std::_Vector_base<duckdb_parquet::SortingColumn, std::allocator<duckdb_parquet::SortingColumn>>::_Vector_impl" }
%"struct.std::_Vector_base<duckdb_parquet::SortingColumn, std::allocator<duckdb_parquet::SortingColumn>>::_Vector_impl" = type { %"struct.std::_Vector_base<duckdb_parquet::SortingColumn, std::allocator<duckdb_parquet::SortingColumn>>::_Vector_impl_data" }
%"struct.std::_Vector_base<duckdb_parquet::SortingColumn, std::allocator<duckdb_parquet::SortingColumn>>::_Vector_impl_data" = type { ptr, ptr, ptr }
%"struct.duckdb_parquet::_RowGroup__isset" = type { i8 }

; Function Attrs: mustprogress uwtable
define void @_ZN6duckdb21RowNumberColumnReader14InitializeReadEmRKNS_6vectorIN14duckdb_parquet11ColumnChunkELb1EEERN13duckdb_apache6thrift8protocol9TProtocolE(ptr noundef nonnull align 8 dereferenceable(552) %0, i64 noundef %1, ptr noundef nonnull align 8 dereferenceable(24) %2, ptr noundef nonnull align 8 dereferenceable(36) %3) unnamed_addr #4 align 2 {
  %5 = alloca ptr, align 8
  %6 = alloca i64, align 8
  %7 = alloca ptr, align 8
  %8 = alloca ptr, align 8
  %9 = alloca ptr, align 8
  %10 = alloca i64, align 8
  store ptr %0, ptr %5, align 8, !tbaa !330
  store i64 %1, ptr %6, align 8, !tbaa !206
  store ptr %2, ptr %7, align 8, !tbaa !207
  store ptr %3, ptr %8, align 8, !tbaa !209
  %11 = load ptr, ptr %5, align 8
  %12 = getelementptr inbounds nuw %"class.duckdb::RowNumberColumnReader", ptr %11, i32 0, i32 1
  store i64 0, ptr %12, align 8, !tbaa !332
  call void @llvm.lifetime.start.p0(i64 8, ptr %9) #3
  %13 = getelementptr inbounds nuw %"class.duckdb::ColumnReader", ptr %11, i32 0, i32 2
  %14 = load ptr, ptr %13, align 8, !tbaa !19
  %15 = call noundef ptr @_ZN6duckdb13ParquetReader15GetFileMetadataEv(ptr noundef nonnull align 8 dereferenceable(560) %14)
  %16 = getelementptr inbounds nuw %"class.duckdb_parquet::FileMetaData", ptr %15, i32 0, i32 5
  store ptr %16, ptr %9, align 8, !tbaa !334
  call void @llvm.lifetime.start.p0(i64 8, ptr %10) #3
  store i64 0, ptr %10, align 8, !tbaa !206
  br label %17

17:                                               ; preds = %31, %4
  %18 = load i64, ptr %10, align 8, !tbaa !206
  %19 = load i64, ptr %6, align 8, !tbaa !206
  %20 = icmp ult i64 %18, %19
  br i1 %20, label %22, label %21

21:                                               ; preds = %17
  call void @llvm.lifetime.end.p0(i64 8, ptr %10) #3
  br label %34

22:                                               ; preds = %17
  %23 = load ptr, ptr %9, align 8, !tbaa !334
  %24 = load i64, ptr %10, align 8, !tbaa !206
  %25 = call noundef nonnull align 8 dereferenceable(91) ptr @_ZNK6duckdb6vectorIN14duckdb_parquet8RowGroupELb1EEixEm(ptr noundef nonnull align 8 dereferenceable(24) %23, i64 noundef %24)
  %26 = getelementptr inbounds nuw %"class.duckdb_parquet::RowGroup", ptr %25, i32 0, i32 3
  %27 = load i64, ptr %26, align 8, !tbaa !336
  %28 = getelementptr inbounds nuw %"class.duckdb::RowNumberColumnReader", ptr %11, i32 0, i32 1
  %29 = load i64, ptr %28, align 8, !tbaa !332
  %30 = add i64 %29, %27
  store i64 %30, ptr %28, align 8, !tbaa !332
  br label %31

31:                                               ; preds = %22
  %32 = load i64, ptr %10, align 8, !tbaa !206
  %33 = add i64 %32, 1
  store i64 %33, ptr %10, align 8, !tbaa !206
  br label %17, !llvm.loop !351

34:                                               ; preds = %21
  call void @llvm.lifetime.end.p0(i64 8, ptr %9) #3
  ret void
}