; Function Attrs: mustprogress uwtable
define void @_ZN6duckdb21RowNumberColumnReader14InitializeReadEmRKNS_6vectorIN14duckdb_parquet11ColumnChunkELb1EEERN13duckdb_apache6thrift8protocol9TProtocolE(ptr noundef nonnull align 8 captures(none) dereferenceable(552) initializes((544, 552)) %0, i64 noundef %1, ptr nonnull readnone align 8 captures(none) %2, ptr nonnull readnone align 8 captures(none) %3) unnamed_addr #3 align 2 {
  %5 = getelementptr inbounds nuw i8, ptr %0, i64 544
  store i64 0, ptr %5, align 8, !tbaa !327
  %6 = getelementptr inbounds nuw i8, ptr %0, i64 16
  %7 = load ptr, ptr %6, align 8, !tbaa !91
  %8 = tail call noundef ptr @_ZN6duckdb13ParquetReader15GetFileMetadataEv(ptr noundef nonnull align 8 dereferenceable(560) %7)
  %9 = getelementptr inbounds nuw i8, ptr %8, i64 48
  %.not = icmp eq i64 %1, 0
  br i1 %.not, label %._crit_edge, label %.lr.ph

._crit_edge:                                      ; preds = %.lr.ph, %4
  ret void

.lr.ph:                                           ; preds = %4, %.lr.ph
  %.05 = phi i64 [ %15, %.lr.ph ], [ 0, %4 ]
  %10 = tail call noundef nonnull align 8 dereferenceable(91) ptr @_ZNK6duckdb6vectorIN14duckdb_parquet8RowGroupELb1EEixEm(ptr noundef nonnull align 8 dereferenceable(24) %9, i64 noundef %.05)
  %11 = getelementptr inbounds nuw i8, ptr %10, i64 40
  %12 = load i64, ptr %11, align 8, !tbaa !329
  %13 = load i64, ptr %5, align 8, !tbaa !327
  %14 = add i64 %13, %12
  store i64 %14, ptr %5, align 8, !tbaa !327
  %15 = add nuw i64 %.05, 1
  %exitcond.not = icmp eq i64 %15, %1
  br i1 %exitcond.not, label %._crit_edge, label %.lr.ph, !llvm.loop !344
}